; Function Attrs: mustprogress nounwind uwtable
define void @_ZN6icu_7720CollationDataBuilderD2Ev(ptr noundef nonnull align 8 dereferenceable(640) initializes((0, 8)) %0) unnamed_addr #1 align 2 personality ptr @__gxx_personality_v0 {
  store ptr getelementptr inbounds nuw inrange(-16, 48) (i8, ptr @_ZTVN6icu_7720CollationDataBuilderE, i64 16), ptr %0, align 8, !tbaa !33
  %2 = getelementptr inbounds nuw i8, ptr %0, i64 32
  %3 = load ptr, ptr %2, align 8, !tbaa !80
  invoke void @utrie2_close_77(ptr noundef %3)
          to label %4 unwind label %27

4:                                                ; preds = %1
  %5 = getelementptr inbounds nuw i8, ptr %0, i64 624
  %6 = load ptr, ptr %5, align 8, !tbaa !121
  %7 = icmp eq ptr %6, null
  br i1 %7, label %12, label %8

8:                                                ; preds = %4
  %9 = load ptr, ptr %6, align 8, !tbaa !33
  %10 = getelementptr inbounds nuw i8, ptr %9, i64 8
  %11 = load ptr, ptr %10, align 8
  tail call void %11(ptr noundef nonnull align 8 dereferenceable(7372) %6) #19
  br label %12

12:                                               ; preds = %8, %4
  %13 = getelementptr inbounds nuw i8, ptr %0, i64 632
  %14 = load ptr, ptr %13, align 8, !tbaa !122
  %15 = icmp eq ptr %14, null
  br i1 %15, label %20, label %16

16:                                               ; preds = %12
  %17 = load ptr, ptr %14, align 8, !tbaa !33
  %18 = getelementptr inbounds nuw i8, ptr %17, i64 8
  %19 = load ptr, ptr %18, align 8
  tail call void %19(ptr noundef nonnull align 8 dereferenceable(828) %14) #19
  br label %20

20:                                               ; preds = %16, %12
  %21 = getelementptr inbounds nuw i8, ptr %0, i64 416
  tail call void @_ZN6icu_7710UnicodeSetD1Ev(ptr noundef nonnull align 8 dereferenceable(200) %21) #19
  %22 = getelementptr inbounds nuw i8, ptr %0, i64 344
  tail call void @_ZN6icu_7713UnicodeStringD1Ev(ptr noundef nonnull align 8 dereferenceable(64) %22) #19
  %23 = getelementptr inbounds nuw i8, ptr %0, i64 144
  tail call void @_ZN6icu_7710UnicodeSetD1Ev(ptr noundef nonnull align 8 dereferenceable(200) %23) #19
  %24 = getelementptr inbounds nuw i8, ptr %0, i64 104
  tail call void @_ZN6icu_777UVectorD1Ev(ptr noundef nonnull align 8 dereferenceable(40) %24) #19
  %25 = getelementptr inbounds nuw i8, ptr %0, i64 72
  tail call void @_ZN6icu_779UVector64D1Ev(ptr noundef nonnull align 8 dereferenceable(32) %25) #19
  %26 = getelementptr inbounds nuw i8, ptr %0, i64 40
  tail call void @_ZN6icu_779UVector32D1Ev(ptr noundef nonnull align 8 dereferenceable(32) %26) #19
  tail call void @_ZN6icu_777UObjectD2Ev(ptr noundef nonnull align 8 dereferenceable(8) %0) #19
  ret void

27:                                               ; preds = %1
  %28 = landingpad { ptr, i32 }
          catch ptr null
  %29 = extractvalue { ptr, i32 } %28, 0
  tail call void @__clang_call_terminate(ptr %29) #20
  unreachable
}